target datalayout = "e-m:e-p270:32:32-p271:32:32-p272:64:64-i64:64-i128:128-f80:128-n8:16:32:64-S128"
target triple = "x86_64-unknown-linux-gnu"

%struct.QTailQLink = type { ptr, ptr }
%struct.Object = type { ptr, ptr, ptr, i32, ptr }
%struct.AHCIDevice = type { %struct.IDEDMA, %struct.IDEBus, i32, i32, i32, %struct.AHCIPortRegs, ptr, ptr, ptr, ptr, i8, i32, i8, ptr, [32 x %struct.NCQTransferState], %struct.MemReentrancyGuard }
%struct.IDEDMA = type { ptr, %struct.QEMUIOVector, ptr }
%struct.QEMUIOVector = type { ptr, i32, %union.anon.3 }
%union.anon.3 = type { %struct.anon.4 }
%struct.anon.4 = type { i32, %struct.iovec }
%struct.iovec = type { ptr, i64 }
%struct.IDEBus = type { %struct.BusState, ptr, ptr, [2 x %struct.IDEState], ptr, i32, i32, ptr, i8, i8, ptr, i32, i8, i64, i32, %struct.PortioList, %struct.PortioList, ptr }
%struct.BusState = type { %struct.Object, ptr, ptr, ptr, i32, i8, i8, i32, %union.BusChildHead, %struct.BusStateEntry, %struct.ResettableState }
%union.BusChildHead = type { %struct.QTailQLink }
%struct.BusStateEntry = type { ptr, ptr }
%struct.ResettableState = type { i32, i8, i8 }
%struct.IDEState = type { ptr, i8, i32, i32, i32, i32, i32, i32, i32, i64, i32, i32, [512 x i8], i32, [21 x i8], [41 x i8], i64, i8, i8, i32, i8, i8, i8, i8, i8, i8, i8, i8, i8, i8, i8, i8, i8, ptr, [9 x i8], %struct.unreported_events, i8, i8, i8, i8, i8, i32, i32, i32, i32, i32, i32, %struct.BlockAcctCookie, ptr, %struct.QEMUIOVector, %struct.anon.6, i64, i32, %struct.QEMUSGList, i32, ptr, ptr, ptr, ptr, i32, i32, i32, i8, ptr, i32, i8, i32, ptr, i32, i32, i8, i8, i32, i8, ptr, i32 }
%struct.unreported_events = type { i8, i8 }
%struct.BlockAcctCookie = type { i64, i64, i32 }
%struct.anon.6 = type { ptr }
%struct.QEMUSGList = type { ptr, i32, i32, i64, ptr, ptr }
%struct.PortioList = type { ptr, ptr, ptr, i32, ptr, ptr, ptr, i8 }
%struct.AHCIPortRegs = type { i32, i32, i32, i32, i32, i32, i32, i32, i32, i32, i32, i32, i32, i32, i32, i32 }
%struct.NCQTransferState = type { ptr, ptr, ptr, %struct.QEMUSGList, %struct.BlockAcctCookie, i32, i64, i8, i8, i8, i8, i8 }
%struct.MemReentrancyGuard = type { i8 }

; Function Attrs: nounwind sspstrong uwtable
define internal void @ahci_check_cmd_bh(ptr noundef %opaque) #0 {
entry:
  %opaque.addr = alloca ptr, align 8
  %ad = alloca ptr, align 8
  store ptr %opaque, ptr %opaque.addr, align 8
  %0 = load ptr, ptr %opaque.addr, align 8
  store ptr %0, ptr %ad, align 8
  %1 = load ptr, ptr %ad, align 8
  %check_bh = getelementptr inbounds %struct.AHCIDevice, ptr %1, i32 0, i32 7
  %2 = load ptr, ptr %check_bh, align 8
  call void @qemu_bh_delete(ptr noundef %2)
  %3 = load ptr, ptr %ad, align 8
  %check_bh1 = getelementptr inbounds %struct.AHCIDevice, ptr %3, i32 0, i32 7
  store ptr null, ptr %check_bh1, align 8
  %4 = load ptr, ptr %ad, align 8
  %hba = getelementptr inbounds %struct.AHCIDevice, ptr %4, i32 0, i32 6
  %5 = load ptr, ptr %hba, align 8
  %6 = load ptr, ptr %ad, align 8
  %port_no = getelementptr inbounds %struct.AHCIDevice, ptr %6, i32 0, i32 2
  %7 = load i32, ptr %port_no, align 8
  call void @check_cmd(ptr noundef %5, i32 noundef %7)
  ret void
}