; Function Attrs: nounwind sspstrong uwtable
define internal void @ahci_check_cmd_bh(ptr noundef captures(none) %opaque) #0 {
entry:
  %check_bh = getelementptr inbounds nuw i8, ptr %opaque, i64 2448
  %0 = load ptr, ptr %check_bh, align 8
  tail call void @qemu_bh_delete(ptr noundef %0) #12
  store ptr null, ptr %check_bh, align 8
  %hba = getelementptr inbounds nuw i8, ptr %opaque, i64 2440
  %1 = load ptr, ptr %hba, align 8
  %port_no = getelementptr inbounds nuw i8, ptr %opaque, i64 2360
  %2 = load i32, ptr %port_no, align 8
  tail call fastcc void @check_cmd(ptr noundef %1, i32 noundef %2)
  ret void
}